target datalayout = "e-m:e-p270:32:32-p271:32:32-p272:64:64-i64:64-i128:128-f80:128-n8:16:32:64-S128"
target triple = "x86_64-pc-linux-gnu"

; Function Attrs: inlinehint nounwind sspstrong uwtable
define internal i32 @RB_NUM2UINT(i64 noundef %0) #3 {
  %2 = alloca i64, align 8
  %3 = alloca i64, align 8
  store i64 %0, ptr %2, align 8, !tbaa !20
  call void @llvm.lifetime.start.p0(i64 8, ptr %3) #22
  %4 = load i64, ptr %2, align 8, !tbaa !20
  %5 = call i64 @rb_num2uint(i64 noundef %4)
  store i64 %5, ptr %3, align 8, !tbaa !20
  %6 = load i64, ptr %3, align 8, !tbaa !20
  %7 = trunc i64 %6 to i32
  call void @llvm.lifetime.end.p0(i64 8, ptr %3) #22
  ret i32 %7
}

; Function Attrs: inlinehint nounwind sspstrong uwtable
define internal i32 @rb_check_arity(i32 noundef %0, i32 noundef %1, i32 noundef %2) #3 {
  %4 = alloca i32, align 4
  %5 = alloca i32, align 4
  %6 = alloca i32, align 4
  store i32 %0, ptr %4, align 4, !tbaa !32
  store i32 %1, ptr %5, align 4, !tbaa !32
  store i32 %2, ptr %6, align 4, !tbaa !32
  %7 = load i32, ptr %4, align 4, !tbaa !32
  %8 = load i32, ptr %5, align 4, !tbaa !32
  %9 = icmp slt i32 %7, %8
  br i1 %9, label %17, label %10

10:                                               ; preds = %3
  %11 = load i32, ptr %6, align 4, !tbaa !32
  %12 = icmp ne i32 %11, -1
  br i1 %12, label %13, label %21

13:                                               ; preds = %10
  %14 = load i32, ptr %4, align 4, !tbaa !32
  %15 = load i32, ptr %6, align 4, !tbaa !32
  %16 = icmp sgt i32 %14, %15
  br i1 %16, label %17, label %21

17:                                               ; preds = %13, %3
  %18 = load i32, ptr %4, align 4, !tbaa !32
  %19 = load i32, ptr %5, align 4, !tbaa !32
  %20 = load i32, ptr %6, align 4, !tbaa !32
  call void @rb_error_arity(i32 noundef %18, i32 noundef %19, i32 noundef %20) #26
  unreachable

21:                                               ; preds = %13, %10
  %22 = load i32, ptr %4, align 4, !tbaa !32
  ret i32 %22
}

; Function Attrs: nounwind sspstrong uwtable
define internal i64 @io_buffer_clear(i32 noundef %0, ptr noundef %1, i64 noundef %2) #0 {
  %4 = alloca i32, align 4
  %5 = alloca ptr, align 8
  %6 = alloca i64, align 8
  %7 = alloca i8, align 1
  %8 = alloca i64, align 8
  %9 = alloca i64, align 8
  store i32 %0, ptr %4, align 4, !tbaa !32
  store ptr %1, ptr %5, align 8, !tbaa !33
  store i64 %2, ptr %6, align 8, !tbaa !20
  %10 = load i32, ptr %4, align 4, !tbaa !32
  %11 = call i32 @rb_check_arity(i32 noundef %10, i32 noundef 0, i32 noundef 3)
  call void @llvm.lifetime.start.p0(i64 1, ptr %7) #22
  store i8 0, ptr %7, align 1, !tbaa !37
  %12 = load i32, ptr %4, align 4, !tbaa !32
  %13 = icmp sge i32 %12, 1
  br i1 %13, label %14, label %20

14:                                               ; preds = %3
  %15 = load ptr, ptr %5, align 8, !tbaa !33
  %16 = getelementptr i64, ptr %15, i64 0
  %17 = load i64, ptr %16, align 8, !tbaa !20
  %18 = call i32 @RB_NUM2UINT(i64 noundef %17)
  %19 = trunc i32 %18 to i8
  store i8 %19, ptr %7, align 1, !tbaa !37
  br label %20

20:                                               ; preds = %14, %3
  call void @llvm.lifetime.start.p0(i64 8, ptr %8) #22
  call void @llvm.lifetime.start.p0(i64 8, ptr %9) #22
  %21 = load i64, ptr %6, align 8, !tbaa !20
  %22 = load i32, ptr %4, align 4, !tbaa !32
  %23 = sub i32 %22, 1
  %24 = load ptr, ptr %5, align 8, !tbaa !33
  %25 = getelementptr i64, ptr %24, i64 1
  %26 = call ptr @io_buffer_extract_offset_length(i64 noundef %21, i32 noundef %23, ptr noundef %25, ptr noundef %8, ptr noundef %9)
  %27 = load i64, ptr %6, align 8, !tbaa !20
  %28 = load i8, ptr %7, align 1, !tbaa !37
  %29 = load i64, ptr %8, align 8, !tbaa !20
  %30 = load i64, ptr %9, align 8, !tbaa !20
  call void @rb_io_buffer_clear(i64 noundef %27, i8 noundef zeroext %28, i64 noundef %29, i64 noundef %30)
  %31 = load i64, ptr %6, align 8, !tbaa !20
  call void @llvm.lifetime.end.p0(i64 8, ptr %9) #22
  call void @llvm.lifetime.end.p0(i64 8, ptr %8) #22
  call void @llvm.lifetime.end.p0(i64 1, ptr %7) #22
  ret i64 %31
}