; Function Attrs: nounwind sspstrong uwtable
define internal noundef i64 @io_buffer_clear(i32 noundef %0, ptr noundef readonly captures(none) %1, i64 noundef returned %2) #0 {
  %4 = alloca i64, align 8
  %5 = alloca i64, align 8
  %or.cond.i = icmp ugt i32 %0, 3
  br i1 %or.cond.i, label %6, label %rb_check_arity.exit

6:                                                ; preds = %3
  tail call void @rb_error_arity(i32 noundef %0, i32 noundef 0, i32 noundef 3) #26
  unreachable

rb_check_arity.exit:                              ; preds = %3
  %.not = icmp eq i32 %0, 0
  br i1 %.not, label %11, label %7

7:                                                ; preds = %rb_check_arity.exit
  %8 = load i64, ptr %1, align 8, !tbaa !22
  %9 = tail call i64 @rb_num2uint(i64 noundef %8) #25
  %10 = trunc i64 %9 to i8
  br label %11

11:                                               ; preds = %7, %rb_check_arity.exit
  %.0 = phi i8 [ %10, %7 ], [ 0, %rb_check_arity.exit ]
  call void @llvm.lifetime.start.p0(i64 8, ptr nonnull %4) #25
  call void @llvm.lifetime.start.p0(i64 8, ptr nonnull %5) #25
  %12 = add nsw i32 %0, -1
  %13 = getelementptr i8, ptr %1, i64 8
  %14 = call fastcc ptr @io_buffer_extract_offset_length(i64 noundef %2, i32 noundef %12, ptr noundef %13, ptr noundef %4, ptr noundef %5)
  %15 = load i64, ptr %4, align 8, !tbaa !22
  %16 = load i64, ptr %5, align 8, !tbaa !22
  tail call void @rb_io_buffer_clear(i64 noundef %2, i8 noundef zeroext %.0, i64 noundef %15, i64 noundef %16)
  call void @llvm.lifetime.end.p0(i64 8, ptr nonnull %5) #25
  call void @llvm.lifetime.end.p0(i64 8, ptr nonnull %4) #25
  ret i64 %2
}